target datalayout = "e-m:e-p270:32:32-p271:32:32-p272:64:64-i64:64-i128:128-f80:128-n8:16:32:64-S128"
target triple = "x86_64-pc-linux-gnu"

%struct._timelib_tzinfo = type { ptr, %struct.anon, %struct.anon.0, ptr, ptr, ptr, ptr, ptr, i8, %struct._tlocinfo, ptr, ptr }
%struct.anon = type { i32, i32, i32, i32, i32, i32 }
%struct.anon.0 = type { i64, i64, i64, i64, i64, i64 }
%struct._tlocinfo = type { [3 x i8], double, double, ptr }
%struct._ttinfo = type { i32, i32, i32, i32, i32 }

; Function Attrs: nounwind uwtable
define hidden ptr @timelib_fetch_timezone_offset(ptr noundef %0, i64 noundef %1, ptr noundef %2) #0 {
  %4 = alloca ptr, align 8
  %5 = alloca ptr, align 8
  %6 = alloca i64, align 8
  %7 = alloca ptr, align 8
  %8 = alloca i32, align 4
  %9 = alloca i32, align 4
  %10 = alloca i32, align 4
  %11 = alloca i32, align 4
  store ptr %0, ptr %5, align 8, !tbaa !4
  store i64 %1, ptr %6, align 8, !tbaa !64
  store ptr %2, ptr %7, align 8, !tbaa !94
  call void @llvm.lifetime.start.p0(i64 4, ptr %8) #11
  call void @llvm.lifetime.start.p0(i64 4, ptr %9) #11
  %12 = load ptr, ptr %5, align 8, !tbaa !4
  %13 = getelementptr inbounds nuw %struct._timelib_tzinfo, ptr %12, i32 0, i32 2
  %14 = getelementptr inbounds nuw %struct.anon.0, ptr %13, i32 0, i32 3
  %15 = load i64, ptr %14, align 8, !tbaa !28
  %16 = icmp ne i64 %15, 0
  br i1 %16, label %17, label %22

17:                                               ; preds = %3
  %18 = load ptr, ptr %5, align 8, !tbaa !4
  %19 = getelementptr inbounds nuw %struct._timelib_tzinfo, ptr %18, i32 0, i32 3
  %20 = load ptr, ptr %19, align 8, !tbaa !33
  %21 = icmp ne ptr %20, null
  br i1 %21, label %45, label %22

22:                                               ; preds = %17, %3
  %23 = load ptr, ptr %5, align 8, !tbaa !4
  %24 = getelementptr inbounds nuw %struct._timelib_tzinfo, ptr %23, i32 0, i32 11
  %25 = load ptr, ptr %24, align 8, !tbaa !42
  %26 = icmp ne ptr %25, null
  br i1 %26, label %27, label %32

27:                                               ; preds = %22
  %28 = load ptr, ptr %7, align 8, !tbaa !94
  store i64 -9223372036854775808, ptr %28, align 8, !tbaa !64
  %29 = load ptr, ptr %5, align 8, !tbaa !4
  %30 = load i64, ptr %6, align 8, !tbaa !64
  %31 = call ptr @timelib_fetch_posix_timezone_offset(ptr noundef %29, i64 noundef %30, ptr noundef null)
  store ptr %31, ptr %4, align 8
  store i32 1, ptr %10, align 4
  br label %161

32:                                               ; preds = %22
  %33 = load ptr, ptr %5, align 8, !tbaa !4
  %34 = getelementptr inbounds nuw %struct._timelib_tzinfo, ptr %33, i32 0, i32 2
  %35 = getelementptr inbounds nuw %struct.anon.0, ptr %34, i32 0, i32 4
  %36 = load i64, ptr %35, align 8, !tbaa !29
  %37 = icmp eq i64 %36, 1
  br i1 %37, label %38, label %44

38:                                               ; preds = %32
  %39 = load ptr, ptr %7, align 8, !tbaa !94
  store i64 -9223372036854775808, ptr %39, align 8, !tbaa !64
  %40 = load ptr, ptr %5, align 8, !tbaa !4
  %41 = getelementptr inbounds nuw %struct._timelib_tzinfo, ptr %40, i32 0, i32 5
  %42 = load ptr, ptr %41, align 8, !tbaa !56
  %43 = getelementptr inbounds %struct._ttinfo, ptr %42, i64 0
  store ptr %43, ptr %4, align 8
  store i32 1, ptr %10, align 4
  br label %161

44:                                               ; preds = %32
  store ptr null, ptr %4, align 8
  store i32 1, ptr %10, align 4
  br label %161

45:                                               ; preds = %17
  %46 = load i64, ptr %6, align 8, !tbaa !64
  %47 = load ptr, ptr %5, align 8, !tbaa !4
  %48 = getelementptr inbounds nuw %struct._timelib_tzinfo, ptr %47, i32 0, i32 3
  %49 = load ptr, ptr %48, align 8, !tbaa !33
  %50 = getelementptr inbounds i64, ptr %49, i64 0
  %51 = load i64, ptr %50, align 8, !tbaa !34
  %52 = icmp slt i64 %46, %51
  br i1 %52, label %53, label %59

53:                                               ; preds = %45
  %54 = load ptr, ptr %7, align 8, !tbaa !94
  store i64 -9223372036854775808, ptr %54, align 8, !tbaa !64
  %55 = load ptr, ptr %5, align 8, !tbaa !4
  %56 = getelementptr inbounds nuw %struct._timelib_tzinfo, ptr %55, i32 0, i32 5
  %57 = load ptr, ptr %56, align 8, !tbaa !56
  %58 = getelementptr inbounds %struct._ttinfo, ptr %57, i64 0
  store ptr %58, ptr %4, align 8
  store i32 1, ptr %10, align 4
  br label %161

59:                                               ; preds = %45
  %60 = load i64, ptr %6, align 8, !tbaa !64
  %61 = load ptr, ptr %5, align 8, !tbaa !4
  %62 = getelementptr inbounds nuw %struct._timelib_tzinfo, ptr %61, i32 0, i32 3
  %63 = load ptr, ptr %62, align 8, !tbaa !33
  %64 = load ptr, ptr %5, align 8, !tbaa !4
  %65 = getelementptr inbounds nuw %struct._timelib_tzinfo, ptr %64, i32 0, i32 2
  %66 = getelementptr inbounds nuw %struct.anon.0, ptr %65, i32 0, i32 3
  %67 = load i64, ptr %66, align 8, !tbaa !28
  %68 = sub i64 %67, 1
  %69 = getelementptr inbounds nuw i64, ptr %63, i64 %68
  %70 = load i64, ptr %69, align 8, !tbaa !34
  %71 = icmp sge i64 %60, %70
  br i1 %71, label %72, label %109

72:                                               ; preds = %59
  %73 = load ptr, ptr %5, align 8, !tbaa !4
  %74 = getelementptr inbounds nuw %struct._timelib_tzinfo, ptr %73, i32 0, i32 11
  %75 = load ptr, ptr %74, align 8, !tbaa !42
  %76 = icmp ne ptr %75, null
  br i1 %76, label %77, label %82

77:                                               ; preds = %72
  %78 = load ptr, ptr %5, align 8, !tbaa !4
  %79 = load i64, ptr %6, align 8, !tbaa !64
  %80 = load ptr, ptr %7, align 8, !tbaa !94
  %81 = call ptr @timelib_fetch_posix_timezone_offset(ptr noundef %78, i64 noundef %79, ptr noundef %80)
  store ptr %81, ptr %4, align 8
  store i32 1, ptr %10, align 4
  br label %161

82:                                               ; preds = %72
  %83 = load ptr, ptr %5, align 8, !tbaa !4
  %84 = getelementptr inbounds nuw %struct._timelib_tzinfo, ptr %83, i32 0, i32 3
  %85 = load ptr, ptr %84, align 8, !tbaa !33
  %86 = load ptr, ptr %5, align 8, !tbaa !4
  %87 = getelementptr inbounds nuw %struct._timelib_tzinfo, ptr %86, i32 0, i32 2
  %88 = getelementptr inbounds nuw %struct.anon.0, ptr %87, i32 0, i32 3
  %89 = load i64, ptr %88, align 8, !tbaa !28
  %90 = sub i64 %89, 1
  %91 = getelementptr inbounds nuw i64, ptr %85, i64 %90
  %92 = load i64, ptr %91, align 8, !tbaa !34
  %93 = load ptr, ptr %7, align 8, !tbaa !94
  store i64 %92, ptr %93, align 8, !tbaa !64
  %94 = load ptr, ptr %5, align 8, !tbaa !4
  %95 = getelementptr inbounds nuw %struct._timelib_tzinfo, ptr %94, i32 0, i32 5
  %96 = load ptr, ptr %95, align 8, !tbaa !56
  %97 = load ptr, ptr %5, align 8, !tbaa !4
  %98 = getelementptr inbounds nuw %struct._timelib_tzinfo, ptr %97, i32 0, i32 4
  %99 = load ptr, ptr %98, align 8, !tbaa !35
  %100 = load ptr, ptr %5, align 8, !tbaa !4
  %101 = getelementptr inbounds nuw %struct._timelib_tzinfo, ptr %100, i32 0, i32 2
  %102 = getelementptr inbounds nuw %struct.anon.0, ptr %101, i32 0, i32 3
  %103 = load i64, ptr %102, align 8, !tbaa !28
  %104 = sub i64 %103, 1
  %105 = getelementptr inbounds nuw i8, ptr %99, i64 %104
  %106 = load i8, ptr %105, align 1, !tbaa !36
  %107 = zext i8 %106 to i64
  %108 = getelementptr inbounds nuw %struct._ttinfo, ptr %96, i64 %107
  store ptr %108, ptr %4, align 8
  store i32 1, ptr %10, align 4
  br label %161

109:                                              ; preds = %59
  store i32 0, ptr %8, align 4, !tbaa !32
  %110 = load ptr, ptr %5, align 8, !tbaa !4
  %111 = getelementptr inbounds nuw %struct._timelib_tzinfo, ptr %110, i32 0, i32 2
  %112 = getelementptr inbounds nuw %struct.anon.0, ptr %111, i32 0, i32 3
  %113 = load i64, ptr %112, align 8, !tbaa !28
  %114 = sub i64 %113, 1
  %115 = trunc i64 %114 to i32
  store i32 %115, ptr %9, align 4, !tbaa !32
  br label %116

116:                                              ; preds = %139, %109
  %117 = load i32, ptr %9, align 4, !tbaa !32
  %118 = load i32, ptr %8, align 4, !tbaa !32
  %119 = sub i32 %117, %118
  %120 = icmp ugt i32 %119, 1
  br i1 %120, label %121, label %140

121:                                              ; preds = %116
  call void @llvm.lifetime.start.p0(i64 4, ptr %11) #11
  %122 = load i32, ptr %8, align 4, !tbaa !32
  %123 = load i32, ptr %9, align 4, !tbaa !32
  %124 = add i32 %122, %123
  %125 = lshr i32 %124, 1
  store i32 %125, ptr %11, align 4, !tbaa !32
  %126 = load i64, ptr %6, align 8, !tbaa !64
  %127 = load ptr, ptr %5, align 8, !tbaa !4
  %128 = getelementptr inbounds nuw %struct._timelib_tzinfo, ptr %127, i32 0, i32 3
  %129 = load ptr, ptr %128, align 8, !tbaa !33
  %130 = load i32, ptr %11, align 4, !tbaa !32
  %131 = zext i32 %130 to i64
  %132 = getelementptr inbounds nuw i64, ptr %129, i64 %131
  %133 = load i64, ptr %132, align 8, !tbaa !34
  %134 = icmp slt i64 %126, %133
  br i1 %134, label %135, label %137

135:                                              ; preds = %121
  %136 = load i32, ptr %11, align 4, !tbaa !32
  store i32 %136, ptr %9, align 4, !tbaa !32
  br label %139

137:                                              ; preds = %121
  %138 = load i32, ptr %11, align 4, !tbaa !32
  store i32 %138, ptr %8, align 4, !tbaa !32
  br label %139

139:                                              ; preds = %137, %135
  call void @llvm.lifetime.end.p0(i64 4, ptr %11) #11
  br label %116

140:                                              ; preds = %116
  %141 = load ptr, ptr %5, align 8, !tbaa !4
  %142 = getelementptr inbounds nuw %struct._timelib_tzinfo, ptr %141, i32 0, i32 3
  %143 = load ptr, ptr %142, align 8, !tbaa !33
  %144 = load i32, ptr %8, align 4, !tbaa !32
  %145 = zext i32 %144 to i64
  %146 = getelementptr inbounds nuw i64, ptr %143, i64 %145
  %147 = load i64, ptr %146, align 8, !tbaa !34
  %148 = load ptr, ptr %7, align 8, !tbaa !94
  store i64 %147, ptr %148, align 8, !tbaa !64
  %149 = load ptr, ptr %5, align 8, !tbaa !4
  %150 = getelementptr inbounds nuw %struct._timelib_tzinfo, ptr %149, i32 0, i32 5
  %151 = load ptr, ptr %150, align 8, !tbaa !56
  %152 = load ptr, ptr %5, align 8, !tbaa !4
  %153 = getelementptr inbounds nuw %struct._timelib_tzinfo, ptr %152, i32 0, i32 4
  %154 = load ptr, ptr %153, align 8, !tbaa !35
  %155 = load i32, ptr %8, align 4, !tbaa !32
  %156 = zext i32 %155 to i64
  %157 = getelementptr inbounds nuw i8, ptr %154, i64 %156
  %158 = load i8, ptr %157, align 1, !tbaa !36
  %159 = zext i8 %158 to i64
  %160 = getelementptr inbounds nuw %struct._ttinfo, ptr %151, i64 %159
  store ptr %160, ptr %4, align 8
  store i32 1, ptr %10, align 4
  br label %161

161:                                              ; preds = %140, %82, %77, %53, %44, %38, %27
  call void @llvm.lifetime.end.p0(i64 4, ptr %9) #11
  call void @llvm.lifetime.end.p0(i64 4, ptr %8) #11
  %162 = load ptr, ptr %4, align 8
  ret ptr %162
}