; Function Attrs: nounwind uwtable
define hidden ptr @timelib_fetch_timezone_offset(ptr noundef %0, i64 noundef %1, ptr noundef %2) local_unnamed_addr #0 {
  %4 = getelementptr inbounds nuw i8, ptr %0, i64 56
  %5 = load i64, ptr %4, align 8, !tbaa !32
  %.not = icmp eq i64 %5, 0
  br i1 %.not, label %9, label %6

6:                                                ; preds = %3
  %7 = getelementptr inbounds nuw i8, ptr %0, i64 80
  %8 = load ptr, ptr %7, align 8, !tbaa !43
  %.not49 = icmp eq ptr %8, null
  br i1 %.not49, label %9, label %21

9:                                                ; preds = %6, %3
  %10 = getelementptr inbounds nuw i8, ptr %0, i64 168
  %11 = load ptr, ptr %10, align 8, !tbaa !63
  %.not50 = icmp eq ptr %11, null
  br i1 %.not50, label %14, label %12

12:                                               ; preds = %9
  store i64 -9223372036854775808, ptr %2, align 8, !tbaa !83
  %13 = tail call ptr @timelib_fetch_posix_timezone_offset(ptr noundef nonnull %0, i64 noundef %1, ptr noundef null) #17
  br label %67

14:                                               ; preds = %9
  %15 = getelementptr inbounds nuw i8, ptr %0, i64 64
  %16 = load i64, ptr %15, align 8, !tbaa !33
  %17 = icmp eq i64 %16, 1
  br i1 %17, label %18, label %67

18:                                               ; preds = %14
  store i64 -9223372036854775808, ptr %2, align 8, !tbaa !83
  %19 = getelementptr inbounds nuw i8, ptr %0, i64 96
  %20 = load ptr, ptr %19, align 8, !tbaa !35
  br label %67

21:                                               ; preds = %6
  %22 = load i64, ptr %8, align 8, !tbaa !44
  %23 = icmp slt i64 %1, %22
  br i1 %23, label %24, label %27

24:                                               ; preds = %21
  store i64 -9223372036854775808, ptr %2, align 8, !tbaa !83
  %25 = getelementptr inbounds nuw i8, ptr %0, i64 96
  %26 = load ptr, ptr %25, align 8, !tbaa !35
  br label %67

27:                                               ; preds = %21
  %28 = add i64 %5, -1
  %29 = getelementptr inbounds nuw i64, ptr %8, i64 %28
  %30 = load i64, ptr %29, align 8, !tbaa !44
  %.not51 = icmp slt i64 %1, %30
  br i1 %.not51, label %46, label %31

31:                                               ; preds = %27
  %32 = getelementptr inbounds nuw i8, ptr %0, i64 168
  %33 = load ptr, ptr %32, align 8, !tbaa !63
  %.not52 = icmp eq ptr %33, null
  br i1 %.not52, label %36, label %34

34:                                               ; preds = %31
  %35 = tail call ptr @timelib_fetch_posix_timezone_offset(ptr noundef nonnull %0, i64 noundef %1, ptr noundef %2) #17
  br label %67

36:                                               ; preds = %31
  store i64 %30, ptr %2, align 8, !tbaa !83
  %37 = getelementptr inbounds nuw i8, ptr %0, i64 96
  %38 = load ptr, ptr %37, align 8, !tbaa !35
  %39 = getelementptr inbounds nuw i8, ptr %0, i64 88
  %40 = load ptr, ptr %39, align 8, !tbaa !56
  %41 = getelementptr i8, ptr %40, i64 %5
  %42 = getelementptr i8, ptr %41, i64 -1
  %43 = load i8, ptr %42, align 1, !tbaa !57
  %44 = zext i8 %43 to i64
  %45 = getelementptr inbounds nuw %struct._ttinfo, ptr %38, i64 %44
  br label %67

46:                                               ; preds = %27
  %47 = trunc i64 %28 to i32
  %48 = icmp ugt i32 %47, 1
  br i1 %48, label %.lr.ph, label %._crit_edge

.lr.ph:                                           ; preds = %46, %.lr.ph
  %.04254 = phi i32 [ %..042, %.lr.ph ], [ %47, %46 ]
  %.04353 = phi i32 [ %.043., %.lr.ph ], [ 0, %46 ]
  %49 = add i32 %.04254, %.04353
  %50 = lshr i32 %49, 1
  %51 = zext nneg i32 %50 to i64
  %52 = getelementptr inbounds nuw i64, ptr %8, i64 %51
  %53 = load i64, ptr %52, align 8, !tbaa !44
  %54 = icmp slt i64 %1, %53
  %.043. = select i1 %54, i32 %.04353, i32 %50
  %..042 = select i1 %54, i32 %50, i32 %.04254
  %55 = sub i32 %..042, %.043.
  %56 = icmp ugt i32 %55, 1
  br i1 %56, label %.lr.ph, label %._crit_edge.loopexit

._crit_edge.loopexit:                             ; preds = %.lr.ph
  %.phi.trans.insert = zext nneg i32 %.043. to i64
  %.phi.trans.insert55 = getelementptr inbounds nuw i64, ptr %8, i64 %.phi.trans.insert
  %.pre = load i64, ptr %.phi.trans.insert55, align 8, !tbaa !44
  %57 = zext nneg i32 %.043. to i64
  br label %._crit_edge

._crit_edge:                                      ; preds = %46, %._crit_edge.loopexit
  %58 = phi i64 [ %.pre, %._crit_edge.loopexit ], [ %22, %46 ]
  %.043.lcssa = phi i64 [ %57, %._crit_edge.loopexit ], [ 0, %46 ]
  store i64 %58, ptr %2, align 8, !tbaa !83
  %59 = getelementptr inbounds nuw i8, ptr %0, i64 96
  %60 = load ptr, ptr %59, align 8, !tbaa !35
  %61 = getelementptr inbounds nuw i8, ptr %0, i64 88
  %62 = load ptr, ptr %61, align 8, !tbaa !56
  %63 = getelementptr inbounds nuw i8, ptr %62, i64 %.043.lcssa
  %64 = load i8, ptr %63, align 1, !tbaa !57
  %65 = zext i8 %64 to i64
  %66 = getelementptr inbounds nuw %struct._ttinfo, ptr %60, i64 %65
  br label %67

67:                                               ; preds = %14, %._crit_edge, %36, %34, %24, %18, %12
  %.0 = phi ptr [ %26, %24 ], [ %35, %34 ], [ %45, %36 ], [ %66, %._crit_edge ], [ %13, %12 ], [ %20, %18 ], [ null, %14 ]
  ret ptr %.0
}